c__builtin__
set
p0
((lp1
Vwater_scooter
p2
aVsmelling_bottle
p3
aVtraction_engine
p4
aVnunnery
p5
aVgrocery_bag
p6
aVtransom_window
p7
aVhorsecar
p8
aVlighter-than-air_craft
p9
aVmansion
p10
aVexpress_luxury_liner
p11
aVtrolley
p12
aVswag
p13
aVchicken_coop
p14
aVcabriolet
p15
aVcarport
p16
aVglider
p17
aVdrosky
p18
aVbike
p19
aVteaspoon
p20
aVgharry
p21
aVreclining_chair
p22
aVpersonnel_pouch
p23
aVphial
p24
aVfishbowl
p25
aVrosin_bag
p26
aVslop_jar
p27
aVmotor_vehicle
p28
aVcoffee_table
p29
aVinn
p30
aVchapel
p31
aVschool
p32
aVsingle-propeller_plane
p33
aVcustomhouse
p34
aVsatchel
p35
aVholiday_resort
p36
aVracing_shell
p37
aVtool_cabinet
p38
aVdog_sleigh
p39
aVfarmhouse
p40
aVbicycle
p41
aVgasbag
p42
aVgas_guzzler
p43
aVinkwell
p44
aVLord's_table
p45
aVtypesetter's_case
p46
aVjamjar
p47
aVjinrikisha
p48
aVsingle-rotor_helicopter
p49
aVwreck
p50
aVMinuteman
p51
aVroadhouse
p52
aVbaptistery
p53
aVmotor_torpedo_boat
p54
aVmail_boat
p55
aVjaunting_car
p56
aVfunny_house
p57
aVtrailer_truck
p58
aVday_bed
p59
aVhouse_of_worship
p60
aVpontoon
p61
aVdustpan
p62
aVbookcase
p63
aVhulk
p64
aVsecretaire
p65
aVdorm
p66
aVdiesel-hydraulic_locomotive
p67
aVluggage
p68
aVnebuliser
p69
aVsaltbox
p70
aVtankard
p71
aVbunker
p72
aVchateau
p73
aVslave_ship
p74
aVash-bin
p75
aVmusic_school
p76
aVcivic_center
p77
aVdelivery_truck
p78
aVair-to-air_missile
p79
aVwagon-lit
p80
aVcereal_box
p81
aVmosque
p82
aVcorncrib
p83
aVfree_house
p84
aVpersonnel_carrier
p85
aVhospital
p86
aVsingle_dwelling
p87
aVlimousine
p88
aVlorry
p89
aVhandcar
p90
aVplaybox
p91
aVglass
p92
aVberlin
p93
aVjakes
p94
aVflour_bin
p95
aVvacuum_bottle
p96
aVpouch
p97
aVopera_house
p98
aVreading_desk
p99
aVlitter-basket
p100
aVplay-box
p101
aVtoilet_seat
p102
aVwineskin
p103
aVsod_house
p104
aVsoda_can
p105
aVlocker
p106
aVbungalow
p107
aVlocket
p108
aVkitchen_table
p109
aVcoin_box
p110
aVhash_house
p111
aVsurface_ship
p112
aVshook
p113
aVracing_boat
p114
aVquiver
p115
aVclothespress
p116
aVcredenza
p117
aVarmored_personnel_carrier
p118
aVtelecom_hotel
p119
aVcruise_ship
p120
aVgoldfish_bowl
p121
aVchurch_building
p122
aVjetliner
p123
aVbarrage_balloon
p124
aVhod
p125
aVgarden_cart
p126
aVbee_house
p127
aVbunk
p128
aVsmall_ship
p129
aVmachine
p130
aVtin_can
p131
aVordinary
p132
aVhoy
p133
aVeggbeater
p134
aVbriefcase
p135
aVashcan
p136
aVflying_boat
p137
aVmilkwagon
p138
aVmotortruck
p139
aVfinger_bowl
p140
aVsalad_bar
p141
aVhydroplane
p142
aVvase
p143
aVscull
p144
aVmanse
p145
aVweekender
p146
aVcaisson
p147
aVretort
p148
aVsmack
p149
aVbaggage
p150
aVlightship
p151
aVambulance
p152
aVsmokehouse
p153
aVmilitary_plane
p154
aVstorm_sash
p155
aVchurch_bench
p156
aVdeck
p157
aVfan-jet
p158
aVfriary
p159
aVkeelboat
p160
aVcenser
p161
aVdiesel-electric
p162
aVcaster
p163
aVcargo_container
p164
aVpull-in
p165
aVbackpack
p166
aVovernight_case
p167
aVcarton
p168
aVfuneral_parlour
p169
aVclothes_basket
p170
aVsugar_spoon
p171
aVtrail_bike
p172
aVdoghouse
p173
aVsafe
p174
aVslop_basin
p175
aVcoffer
p176
aVgypsy_cab
p177
aVbank
p178
aVjampot
p179
aVpop_bottle
p180
aVcrock
p181
aVnebuchadnezzar
p182
aVtipper_lorry
p183
aVcard_table
p184
aVmoney_box
p185
aVdispatch_case
p186
aVAPC
p187
aVfuneral_church
p188
aVlugger
p189
aVfield_hospital
p190
aVsled
p191
aVmackinaw
p192
aVinkpot
p193
aVordinary_bicycle
p194
aVcathedral
p195
aVhostel
p196
aVrummer
p197
aVvolary
p198
aVmotel
p199
aVairmailer
p200
aVcoat_closet
p201
aVsampan
p202
aVbaby_carriage
p203
aVbareboat
p204
aVclarence
p205
aVtroopship
p206
aVpacking_case
p207
aVsweat_bag
p208
aVtank_car
p209
aVcutty_stool
p210
aVmuller
p211
aVoxeye
p212
aVjumbojet
p213
aVmonoplane
p214
aVtea_cart
p215
aVpatrol_car
p216
aVportmanteau
p217
aVshopwindow
p218
aVhalf_track
p219
aVmeat_house
p220
aVshuttle_helicopter
p221
aVDutch_oven
p222
aVchopper
p223
aVdaybed
p224
aVwhorehouse
p225
aVhearse
p226
aVbird_sanctuary
p227
aVcorvette
p228
aVground-effect_machine
p229
aVcrucible
p230
aVsudatory
p231
aVbed-and-breakfast
p232
aVwatch_case
p233
aVperambulator
p234
aVtip_table
p235
aVwardrobe
p236
aVtheater_in_the_round
p237
aVholdall
p238
aVtavern
p239
aVestaminet
p240
aVcompositor's_case
p241
aVhoneymoon_resort
p242
aVbarouche
p243
aVdoggy_bag
p244
aVrefectory_table
p245
aVdozer
p246
aVpalace
p247
aVpassenger_ship
p248
aVtallboy
p249
aVsmoker
p250
aVpantheon
p251
aVattack_aircraft
p252
aVreligious_residence
p253
aVpocket_battleship
p254
aVlog_cabin
p255
aVstalls
p256
aVchurn
p257
aVpowder_keg
p258
aVstock_car
p259
aVteakettle
p260
aVsteamboat
p261
aVbaggage_car
p262
aVcat_box
p263
aVR.V.
p264
aVchest
p265
aVdivan
p266
aVsleeper
p267
aVcigar_box
p268
aVcargo_liner
p269
aVwatch_glass
p270
aVbody_bag
p271
aVboxcar
p272
aVoperating_table
p273
aVmusjid
p274
aVlab_bench
p275
aVairship
p276
aVnuclear_submarine
p277
aVhorse_barn
p278
aVhandcart
p279
aVtow_car
p280
aVmasjid
p281
aVstorage_ring
p282
aVtithe_barn
p283
aVchariot
p284
aVbeach_waggon
p285
aVtabouret
p286
aVsanatarium
p287
aVmarine_museum
p288
aVsharpie
p289
aVdredger
p290
aVpatrol_wagon
p291
aVnuclear-powered_submarine
p292
aVrecliner
p293
aVcanal_boat
p294
aVstoop
p295
aVbedpan
p296
aVbuckboard
p297
aVhassock
p298
aVconsole
p299
aVraceabout
p300
aVlodge
p301
aVplate
p302
aVhighchair
p303
aVtoy_chest
p304
aVhighball_glass
p305
aVrailway_locomotive
p306
aVpocket
p307
aVunicycle
p308
aVboathouse
p309
aVback_pack
p310
aVtoolbox
p311
aVstudent_residence
p312
aVfootrest
p313
aVbar
p314
aVfitment
p315
aVparlour_car
p316
aVblack_Maria
p317
aVbag
p318
aVarchitecture
p319
aVsecretary
p320
aVdrinking_vessel
p321
aVdrinking_glass
p322
aVdustbin
p323
aVbain-marie
p324
aVferryboat
p325
aVsport_car
p326
aVbed
p327
aVbrasserie
p328
aVHall_of_Fame
p329
aVtool_bag
p330
aVbier
p331
aVmug
p332
aVelectric_automobile
p333
aVlota
p334
aVpirate
p335
aVwaterskin
p336
aVhot-rod
p337
aVdory
p338
aVcarboy
p339
aVaquarium
p340
aVwheelbarrow
p341
aVconvertible
p342
aVcontrol_center
p343
aVoast_house
p344
aVparts_bin
p345
aVcoffee_urn
p346
aVbaptistry
p347
aVblimp
p348
aVgovernment_building
p349
aVsleeping_car
p350
aVfarm_building
p351
aVpacket_boat
p352
aVurceole
p353
aVstupa
p354
aVmarmite
p355
aVcaptain's_chair
p356
aVtruckle_bed
p357
aVwatercraft
p358
aVairbrush
p359
aVcoffee_bar
p360
aVammunition_chest
p361
aVsubmarine
p362
aVpepper_shaker
p363
aVdining-room_furniture
p364
aVbasin
p365
aVmultistage_rocket
p366
aVgravy_holder
p367
aVknockabout
p368
aVpony_cart
p369
aVdugout_canoe
p370
aVbarque
p371
aVsteamroller
p372
aVbladder
p373
aVmadhouse
p374
aVcraft
p375
aVwet_bar
p376
aVteapot
p377
aVziggurat
p378
aVtank
p379
aVtest_rocket
p380
aVaeroplane
p381
aVgateleg_table
p382
aVturbojet
p383
aVdavenport
p384
aVcylinder
p385
aVpanel_truck
p386
aVcoffee_cup
p387
aVdinner_bucket
p388
aVchina_closet
p389
aVcatboat
p390
aVdecanter
p391
aVampulla
p392
aVbuzz_bomb
p393
aVdumper
p394
aVcoal_scuttle
p395
aVladder-back_chair
p396
aVplaten
p397
aVcamp_bed
p398
aVashbin
p399
aVgrapple
p400
aVdogsled
p401
aVart_school
p402
aVwheel
p403
aVcatsup_bottle
p404
aVpetrol_tank
p405
aVkit
p406
aVboiler
p407
aVcastor
p408
aVtope
p409
aVcycle
p410
aVtransport_ship
p411
aVsubmersible_warship
p412
aVdune_buggy
p413
aVtract_house
p414
aVin-basket
p415
aVtank_ship
p416
aVsafety_deposit_box
p417
aVsport_utility
p418
aVcapitol
p419
aVglasses_case
p420
aVout-basket
p421
aVcouncil_table
p422
aVcrewet
p423
aVfirkin
p424
aVsleigh_bed
p425
aVewer
p426
aVgrillroom
p427
aVboard
p428
aVduffel
p429
aVvanity
p430
aVdeck_chair
p431
aVsalad_bowl
p432
aVfour-wheeler
p433
aVtroika
p434
aVsports_arena
p435
aVHumvee
p436
aVbarge
p437
aVhatchback
p438
aVapartment_building
p439
aVdirigible
p440
aVpushcart
p441
aVossuary
p442
aVcommunion_table
p443
aVarmoire
p444
aVcrematorium
p445
aVoil_tanker
p446
aVbutter_dish
p447
aVdude_ranch
p448
aVmazer
p449
aVpyx
p450
aVcreel
p451
aVdinner_theater
p452
aVship's_boat
p453
aVporthole
p454
aVcollection_plate
p455
aVfour-wheel_drive
p456
aVwing_chair
p457
aVchampagne_flute
p458
aVtheatre
p459
aVbottom
p460
aVarmoured_combat_vehicle
p461
aVbordello
p462
aVice
p463
aVnarrow-body
p464
aVjalopy
p465
aVskylight
p466
aVfob
p467
aVnut_house
p468
aVshaker
p469
aVironclad
p470
aVcattleship
p471
aVlady_chapel
p472
aVpaddy_wagon
p473
aVbedroom_furniture
p474
aVmaternity_hospital
p475
aVtea_urn
p476
aVwastepaper_basket
p477
aVgamebag
p478
aVdiner
p479
aVpiano_stool
p480
aVprie-dieu
p481
aVcesspit
p482
aVelectric_car
p483
aVsister_ship
p484
aVcuspidor
p485
aValembic
p486
aVcauldron
p487
aVpaintbox
p488
aVSUV
p489
aVcarafe
p490
aVsickbag
p491
aVcafeteria
p492
aVwar_vessel
p493
aVhospital_ship
p494
aVhigh_table
p495
aVgig
p496
aVwatering_pot
p497
aVsix-pack
p498
aVgueridon
p499
aVpiggy_bank
p500
aVform
p501
aVsailing_boat
p502
aVgambling_den
p503
aVheap
p504
aVpepper_pot
p505
aVdollhouse
p506
aVboneshaker
p507
aVrooming_house
p508
aVfireboat
p509
aVearthenware_jar
p510
aVbasilica
p511
aVrotisserie
p512
aVoverstuffed_chair
p513
aVminibar
p514
aVdacha
p515
aVnarrowboat
p516
aVship
p517
aVmold
p518
aVloving_cup
p519
aVstorm_window
p520
aVwater_jug
p521
aVtin
p522
aVshrine
p523
aVditty_bag
p524
aVmusic_stool
p525
aVgolf_bag
p526
aVsteamship
p527
aVcampstool
p528
aVarmoured_vehicle
p529
aVconsole_table
p530
aVarticulated_lorry
p531
aVpolice_car
p532
aVcargo_helicopter
p533
aVsurfboat
p534
aVsliding_window
p535
aVtransporter
p536
aVinkstand
p537
aVtugboat
p538
aVbrougham
p539
aVcarrack
p540
aVketch
p541
aVmercy_seat
p542
aVdroshky
p543
aVvideocassette
p544
aVrefractory_pot
p545
aVrocking_chair
p546
aVstacks
p547
aVcoach
p548
aVMackinaw_boat
p549
aVhorse_cart
p550
aVroad_roller
p551
aVGladstone_bag
p552
aVskin
p553
aVchair
p554
aVbomber
p555
aVgaming_house
p556
aVflask
p557
aVmatchbox
p558
aVmedicine_chest
p559
aVroot_cellar
p560
aVhouse_of_God
p561
aVhall_of_residence
p562
aVbrandy_glass
p563
aVcoop
p564
aVflatbed
p565
aVdisplay_case
p566
aVfanny_pack
p567
aVdinghy
p568
aVbook_bag
p569
aVknapsack
p570
aVtaphouse
p571
aVsafe-deposit_box
p572
aV4WD
p573
aVtricycle
p574
aVbagnio
p575
aVwine_barrel
p576
aVlounge_car
p577
aVsettle
p578
aVpiece_of_furniture
p579
aVlandrover
p580
aVLiberty_ship
p581
aVwaggon
p582
aVupper
p583
aVbulldozer
p584
aVtea_caddy
p585
aVvilla
p586
aVbeach_wagon
p587
aVgildhall
p588
aVreception_desk
p589
aVpolice_cruiser
p590
aVmental_hospital
p591
aVprairie_wagon
p592
aVsounding_rocket
p593
aVmilk_wagon
p594
aVoeil_de_boeuf
p595
aVsixpack
p596
aVsingle_prop
p597
aVbuilt-in_bed
p598
aVgazebo
p599
aVhot-air_balloon
p600
aVtractor_trailer
p601
aVaircraft_carrier
p602
aVrest_house
p603
aVbandwagon
p604
aVamphora
p605
aVstealth_aircraft
p606
aVlongboat
p607
aVtipper_truck
p608
aVlouvered_window
p609
aVcockleshell
p610
aVbox
p611
aVovernighter
p612
aVbeanbag
p613
aVstep_stool
p614
aVterraced_house
p615
aVweather_ship
p616
aVkitbag
p617
aVwashbowl
p618
aVchesterfield
p619
aVserving_dish
p620
aVfootlocker
p621
aVpepper_box
p622
aVminibike
p623
aVkayak
p624
aVcereal_bowl
p625
aVarmoured_car
p626
aVstreetcar
p627
aVbaby_bed
p628
aVlancet_window
p629
aVpostbag
p630
aVcheckout
p631
aVbreakfast_table
p632
aVcabin_cruiser
p633
aVdive_bomber
p634
aVprivateer
p635
aVclub
p636
aValtar
p637
aVenvelope
p638
aVbicycle-built-for-two
p639
aVtandem
p640
aVstanhope
p641
aVcargo_vessel
p642
aVcoquille
p643
aVmerchantman
p644
aVsoup_bowl
p645
aVthermos
p646
aVsummer_house
p647
aVchancellery
p648
aVcar
p649
aVbooby_hatch
p650
aVprivy
p651
aVcat
p652
aVtub-cart
p653
aVwallet
p654
aVcoalbin
p655
aVcan
p656
aVferry
p657
aVthurible
p658
aVsandbag
p659
aVfish_tank
p660
aVside-wheeler
p661
aVdrawer
p662
aVletter_box
p663
aVdouble-hung_window
p664
aVescritoire
p665
aVdump_truck
p666
aValms_dish
p667
aVsailboat
p668
aVwarplane
p669
aVresearch_center
p670
aVlounge
p671
aVtill
p672
aVflatboat
p673
aVturbo-propeller_plane
p674
aVstudent_union
p675
aVdelivery_van
p676
aVseaplane
p677
aVstorage_space
p678
aVdonkey_cart
p679
aVburn_center
p680
aVslop_pail
p681
aVpowder_horn
p682
aVdouble-propeller_plane
p683
aVwheelchair
p684
aVbeehive
p685
aVsandbox
p686
aVtruck
p687
aVbiplane
p688
aVbanquette
p689
aVship_of_the_line
p690
aVlodging_house
p691
aVpoor_box
p692
aVsurface-to-air_missile
p693
aVgas-turbine_ship
p694
aVRV
p695
aVcourthouse
p696
aVduplex
p697
aVchalice
p698
aVwindow
p699
aVabandoned_ship
p700
aVdrip_pan
p701
aVcutter
p702
aVapplecart
p703
aVcar-ferry
p704
aVequipage
p705
aVwhiskey_jug
p706
aVsalver
p707
aVcatchall
p708
aVstep_rocket
p709
aVStinger
p710
aVbath
p711
aVjoss_house
p712
aVhall
p713
aVbarrow
p714
aVwagon
p715
aVflute_glass
p716
aVlongbeard
p717
aVopera
p718
aVclutch
p719
aVsquad_car
p720
aVtumbril
p721
aVPullman_car
p722
aVcoalhole
p723
aVfood_hamper
p724
aVcorsair
p725
aVmotorboat
p726
aVwash-hand_basin
p727
aVspray_can
p728
aVsavings_bank
p729
aVsponge_bag
p730
aVwatch_pocket
p731
aVdiplomatic_pouch
p732
aVoutrigger_canoe
p733
aVtoby_jug
p734
aVhot-water_bag
p735
aVcoffee_can
p736
aVracing_car
p737
aVpastry_cart
p738
aVelectric_locomotive
p739
aVreconnaissance_vehicle
p740
aVponycart
p741
aVsecondhand_car
p742
aVcart
p743
aVcovered_wagon
p744
aVpowder_compact
p745
aVpivoting_window
p746
aVsaltshaker
p747
aVbandbox
p748
aVburn_bag
p749
aVinhaler
p750
aVpung
p751
aVpilot_engine
p752
aVeasy_chair
p753
aVministry
p754
aVfeeding_chair
p755
aVpunt
p756
aVcigarette_case
p757
aVice-wagon
p758
aVbattle_cruiser
p759
aVice_bag
p760
aVjumbo_jet
p761
aVwastebin
p762
aVcaldron
p763
aVattack_aircraft_carrier
p764
aVpannikin
p765
aVcrib
p766
aVpatch_pocket
p767
aVrink
p768
aVcreche
p769
aVcruise_missile
p770
aVairbus
p771
aVfuneral_parlor
p772
aVteacart
p773
aVconvent
p774
aVshooting_lodge
p775
aVwarming_pan
p776
aVshoebox
p777
aVpull-up
p778
aVsick_bag
p779
aVU-boat
p780
aVtrash_bin
p781
aVhermaphrodite_brig
p782
aVslop_bowl
p783
aVbrewpub
p784
aVcall_center
p785
aVpacket
p786
aVbutt
p787
aVdinky
p788
aVsnack_bar
p789
aVrace_car
p790
aVcar_port
p791
aVRolodex
p792
aVaudiocassette
p793
aVluge
p794
aVtractor
p795
aVmarsh_buggy
p796
aVsterilizer
p797
aViced-tea_spoon
p798
aVice_pack
p799
aVtoilet_bag
p800
aVamphibious_aircraft
p801
aVattack_submarine
p802
aVdreadnaught
p803
aVwashbasin
p804
aVtea_tray
p805
aVparfait_glass
p806
aVsquab
p807
aVbottle_bank
p808
aVdouble-prop
p809
aVtote_bag
p810
aVbelt_bag
p811
aVpail
p812
aVpeacock-throne
p813
aVsledge
p814
aVbuffet
p815
aVbay_window
p816
aVpipe_bowl
p817
aVhighboy
p818
aVmotor_scooter
p819
aVlimber
p820
aVmovie_theatre
p821
aVaerosol
p822
aVdead_room
p823
aVwhirlybird
p824
aVhencoop
p825
aVcoin_bank
p826
aVPT_boat
p827
aVcafeteria_tray
p828
aVdogcart
p829
aVsoda_bottle
p830
aVtipper
p831
aVhunting_lodge
p832
aVshoe
p833
aVhack
p834
aVdog_sled
p835
aVtraining_ship
p836
aVmansion_house
p837
aVdormitory
p838
aVdining-room_table
p839
aVgourd
p840
aVvicarage
p841
aVlazaretto
p842
aVhammock
p843
aVlazarette
p844
aVsteriliser
p845
aVski_resort
p846
aVvelocipede
p847
aVnuthouse
p848
aVjolly_boat
p849
aVRoman_basilica
p850
aVlighter
p851
aVhansom_cab
p852
aVroadster
p853
aVbuilt_in_bed
p854
aVtwinjet
p855
aVshop_window
p856
aVfloor_lamp
p857
aVmotor_lodge
p858
aVrow_house
p859
aVmite_box
p860
aVlunar_module
p861
aVmusnud
p862
aVhorseless_carriage
p863
aVmarriage_bed
p864
aVseat
p865
aVBoston_rocker
p866
aVturntable
p867
aVtowboat
p868
aVschoolhouse
p869
aVfootbath
p870
aVparlor_car
p871
aVsubcompact
p872
aVbath_chair
p873
aVteacup
p874
aVpigboat
p875
aVbureau
p876
aVskyscraper
p877
aVrickshaw
p878
aVtuck_box
p879
aVV-1
p880
aVEames_chair
p881
aVdestroyer_escort
p882
aVtun
p883
aVdust_bag
p884
aVwine_cellar
p885
aVtub
p886
aVhardtop
p887
aVtug
p888
aVdestroyer
p889
aVresidence
p890
aVchaise_longue
p891
aVgas_holder
p892
aVtenement_house
p893
aVcamp_chair
p894
aVvaudeville_theater
p895
aVsheaf
p896
aVsulky
p897
aVattache
p898
aVarmchair
p899
aVpot
p900
aVcrematory
p901
aVtravelling_bag
p902
aVmountain_bike
p903
aVsarcophagus
p904
aVpod
p905
aVboat
p906
aVshrimper
p907
aVcanopic_vase
p908
aVdouble_bed
p909
aVstained-glass_window
p910
aVtramp
p911
aVairliner
p912
aVskep
p913
aVcoupe
p914
aVcupel
p915
aVpleasure_craft
p916
aVtow_truck
p917
aVhelicopter
p918
aVfuneral_chapel
p919
aVbaptismal_font
p920
aVengine
p921
aVchalet
p922
aVcesspool
p923
aVeatery
p924
aVcocktail_table
p925
aVgunboat
p926
aVcase
p927
aVall-terrain_bike
p928
aVauxiliary_boiler
p929
aValcazar
p930
aVtinderbox
p931
aVcask
p932
aVtrash_can
p933
aVsnuffbox
p934
aVcanoe
p935
aVpurse
p936
aVtablet-armed_chair
p937
aVsignal_box
p938
aVcaff
p939
aVreceptacle
p940
aVchapterhouse
p941
aVdressing_table
p942
aVcall_centre
p943
aVsynagogue
p944
aVpenny_bank
p945
aVwhaling_ship
p946
aVshopping_cart
p947
aVbowl
p948
aVdemitasse
p949
aVdivan_bed
p950
aVpan
p951
aVvis-a-vis
p952
aVpsychiatric_hospital
p953
aVcommode
p954
aVnest
p955
aVice_rink
p956
aVcanister
p957
aVchina_cabinet
p958
aVtrawler
p959
aVmaisonette
p960
aVtheater
p961
aVSheraton
p962
aVshooting_gallery
p963
aVbottle
p964
aVhipflask
p965
aVjet-propelled_plane
p966
aVtaxi
p967
aVsmoking_car
p968
aVbattleship
p969
aVcarrier_bag
p970
aVsteamer
p971
aVpaper_bag
p972
aVsprayer
p973
aVconservatoire
p974
aVcountry_house
p975
aVcarpetbag
p976
aVmelting_pot
p977
aVlaundry_truck
p978
aVhang_glider
p979
aVcommissary
p980
aVthimble
p981
aVrecord_cover
p982
aVgreybeard
p983
aVmeteorological_balloon
p984
aVgrip
p985
aVservice_club
p986
aVtracked_vehicle
p987
aVsump
p988
aVsolar_house
p989
aVworkbasket
p990
aVlove_seat
p991
aVloaner
p992
aVfurniture
p993
aVplace_of_worship
p994
aVchiffonier
p995
aVcar_transporter
p996
aVfanlight
p997
aVmilking_stool
p998
aVfour-in-hand
p999
aVtower
p1000
aVpumping_station
p1001
aVkennel
p1002
aVrathskeller
p1003
aVsmoking_compartment
p1004
aVtumbrel
p1005
aVcanteen
p1006
aVstagecoach
p1007
aVpace_car
p1008
aVgo-kart
p1009
aVlivery_stable
p1010
aVracing_gig
p1011
aVheavier-than-air_craft
p1012
aVbirchbark_canoe
p1013
aVlittle_theater
p1014
aVreticule
p1015
aVdispensary
p1016
aVcannister
p1017
aVsauceboat
p1018
aValms_box
p1019
aVIndiaman
p1020
aViceboat
p1021
aVstarship
p1022
aVgarbage_truck
p1023
aVhouse_trailer
p1024
aVwater_jacket
p1025
aVskating_rink
p1026
aVpingpong_table
p1027
aVtoby
p1028
aVduffle_bag
p1029
aVpackage
p1030
aVpatrol_boat
p1031
aVgun_case
p1032
aVwindjammer
p1033
aVdonkey_boiler
p1034
aVdeathbed
p1035
aVstand
p1036
aVgondola
p1037
aVsushi_bar
p1038
aVshowboat
p1039
aVtwin-aisle_airplane
p1040
aVpolice_van
p1041
aVpontoon_plane
p1042
aVhot-water_tank
p1043
aVtwin-propeller-plane
p1044
aVmoped
p1045
aVair-to-surface_missile
p1046
aVranch_house
p1047
aVcouncil_board
p1048
aVgaming_table
p1049
aVnonsmoker
p1050
aVwhaler
p1051
aVmilitary_hospital
p1052
aVsteam_locomotive
p1053
aVfishing_vessel
p1054
aVsoap_dispenser
p1055
aVlunchroom
p1056
aVjug
p1057
aVpolice_boat
p1058
aVhacienda
p1059
aVbuggy
p1060
aVpitcher
p1061
aVbirchbark
p1062
aVcabinet
p1063
aVsporran
p1064
aVfish_bowl
p1065
aVfuneral-residence
p1066
aVclutch_bag
p1067
aVpilot_boat
p1068
aVtable-tennis_table
p1069
aVsailing_ship
p1070
aVbucket
p1071
aVLEM
p1072
aVcanopic_jar
p1073
aVhouse_of_prostitution
p1074
aVgasoline_tank
p1075
aVtea_trolley
p1076
aVcocotte
p1077
aVsuitcase
p1078
aVconventicle
p1079
aVplastic_bag
p1080
aVsnowplough
p1081
aVsoupspoon
p1082
aVsquare-rigger
p1083
aVyacht
p1084
aVvest_pocket
p1085
aVwaste-paper_basket
p1086
aVplanetarium
p1087
aVtraveling_bag
p1088
aVtrundle
p1089
aVfile
p1090
aVbroom_closet
p1091
aVbawdyhouse
p1092
aVsports_car
p1093
aVsoup_spoon
p1094
aVbutter_churn
p1095
aVluggage_van
p1096
aVsalt_shaker
p1097
aVmonstrance
p1098
aVwindow_envelope
p1099
aVdreadnought
p1100
aVshopping_basket
p1101
aVdirt_bike
p1102
aVhouseboat
p1103
aVtime_capsule
p1104
aVdiesel_locomotive
p1105
aVwine_bucket
p1106
aVwater_waggon
p1107
aVpirate_ship
p1108
aVMorris_chair
p1109
aVbuilding
p1110
aVoriel
p1111
aVbelvedere
p1112
aVwater_heater
p1113
aVgyroplane
p1114
aVjeroboam
p1115
aVlamasery
p1116
aVtwin_bed
p1117
aVmotor_home
p1118
aVminicab
p1119
aVvacuum_flask
p1120
aVspacecraft
p1121
aVdish
p1122
aVminicar
p1123
aVsingle_shell
p1124
aVwelcome_wagon
p1125
aVwater_cart
p1126
aVtaxicab
p1127
aVguesthouse
p1128
aVrain_barrel
p1129
aVglebe_house
p1130
aVtrireme
p1131
aVpassenger_car
p1132
aVwater_butt
p1133
aVespresso_shop
p1134
aVinfirmary
p1135
aVtorpedo_boat
p1136
aVsupply_ship
p1137
aVdosshouse
p1138
aVparcel
p1139
aVdiesel-electric_locomotive
p1140
aVfrat_house
p1141
aVpocket_flask
p1142
aVchest_of_drawers
p1143
aVsilent_butler
p1144
aVduplex_house
p1145
aVRoman_building
p1146
aVpillbox
p1147
aVplatform_rocker
p1148
aVsteakhouse
p1149
aVbloodmobile
p1150
aVfour-poster
p1151
aVfleapit
p1152
aVlocomotive
p1153
aVtown_house
p1154
aVfauteuil
p1155
aVMANPAD
p1156
aVfanjet
p1157
aVwall_unit
p1158
aVmultiengine_plane
p1159
aVhamper
p1160
aVmobile_canteen
p1161
aVsub
p1162
aVcast
p1163
aVorangery
p1164
aVboarding_house
p1165
aVstool
p1166
aVoilcan
p1167
aVConestoga
p1168
aVwindow_box
p1169
aVwrecker
p1170
aVcruse
p1171
aVgunny_sack
p1172
aVdrawing_table
p1173
aVscout_car
p1174
aVskidder
p1175
aVtank_locomotive
p1176
aVcarriage_house
p1177
aVspecimen_bottle
p1178
aVtrunk
p1179
aVbeach_buggy
p1180
aVcow_barn
p1181
aVmassage_parlor
p1182
aVsash_window
p1183
aVmultiplex
p1184
aVgravy_boat
p1185
aVswitch_engine
p1186
aVcustomshouse
p1187
aVadobe_house
p1188
aVjewel_casket
p1189
aVsave-all
p1190
aVlaver
p1191
aVmonocycle
p1192
aVcoracle
p1193
aVair_bag
p1194
aVcaravan
p1195
aVmilk_can
p1196
aVcoach-and-four
p1197
aVrefrigerator_car
p1198
aVhand_truck
p1199
aVapartment_house
p1200
aVcasket
p1201
aVkhan
p1202
aVruncible_spoon
p1203
aVwarship
p1204
aVbeer_garden
p1205
aVetagere
p1206
aVDumpster
p1207
aVhackney_coach
p1208
aVwhaleboat
p1209
aVcheese_tray
p1210
aVtobacco_pouch
p1211
aVflat
p1212
aVlander
p1213
aVcaboose
p1214
aVbeach_house
p1215
aVcheckout_counter
p1216
aVteashop
p1217
aVcasino-hotel
p1218
aVarmoured_personnel_carrier
p1219
aVrolling_stock
p1220
aVgrill
p1221
aVberth
p1222
aVtriclinium
p1223
aVgarbage_can
p1224
aVsugar_bowl
p1225
aVbeer_keg
p1226
aVsafe-deposit
p1227
aVnautilus
p1228
aVpony
p1229
aVpusher
p1230
aVbogy
p1231
aVbidet
p1232
aVDewar_flask
p1233
aVchair_car
p1234
aVcircular_file
p1235
aVvoider
p1236
aVairplane
p1237
aVcourt
p1238
aVspeedboat
p1239
aVtable_lamp
p1240
aVmould
p1241
aVlounge_chair
p1242
aVhome_theatre
p1243
aVpinnace
p1244
aVresearch_rocket
p1245
aVice_hockey_rink
p1246
aVhostelry
p1247
aVnonsmoking_car
p1248
aVshunter
p1249
aVConestoga_wagon
p1250
aVstockpot
p1251
aVsubcompact_car
p1252
aVPullman
p1253
aVregister
p1254
aVtouring_car
p1255
aVsound_truck
p1256
aVcuckoo's_nest
p1257
aVargyll
p1258
aVreservoir
p1259
aVsloop
p1260
aVargyle
p1261
aVthree-decker
p1262
aVrectory
p1263
aVslip_carriage
p1264
aVembassy
p1265
aVwork_table
p1266
aVself-propelled_vehicle
p1267
aVkibble
p1268
aVbrig
p1269
aVsoddy
p1270
aVcontainership
p1271
aVtea_parlor
p1272
aVthunder_mug
p1273
aVconference_table
p1274
aVduomo
p1275
aVabbey
p1276
aVscow
p1277
aVresort
p1278
aVautoclave
p1279
aVdelta_wing
p1280
aVpram
p1281
aVice-hockey_rink
p1282
aVwatering_cart
p1283
aVspace_vehicle
p1284
aVautomotive_vehicle
p1285
aVinsane_asylum
p1286
aVNorfolk_wherry
p1287
aVash-pan
p1288
aVfrigate
p1289
aVhot_rod
p1290
aVgambling_casino
p1291
aVtea_maker
p1292
aVnarrow_boat
p1293
aVturbofan
p1294
aVtrial_balloon
p1295
aVtrailer
p1296
aVhaversack
p1297
aVtool_case
p1298
aVhouse
p1299
aVmagnetic_bottle
p1300
aVcybercafe
p1301
aVtrash_barrel
p1302
aVhogshead
p1303
aVroll-on
p1304
aVconference_center
p1305
aVdining_compartment
p1306
aVlittle_theatre
p1307
aVdugout
p1308
aVjolly
p1309
aVbrothel
p1310
aVMason_jar
p1311
aVbale
p1312
aVsignal_tower
p1313
aVbistro
p1314
aVgreasy_spoon
p1315
aVpub
p1316
aVtelco_building
p1317
aVchantry
p1318
aVstrongbox
p1319
aVmovie_house
p1320
aVlaunch
p1321
aVbeer_glass
p1322
aVhangar_queen
p1323
aVbumper
p1324
aVcastle
p1325
aVpannier
p1326
aVduffel_bag
p1327
aVsidewinder
p1328
aVfire_engine
p1329
aVtrophy_case
p1330
aVladder-back
p1331
aVtrimaran
p1332
aVside_chair
p1333
aVcoal_car
p1334
aVworkbag
p1335
aVjet
p1336
aVpercolator
p1337
aVautomobile
p1338
aVspittoon
p1339
aVvitrine
p1340
aVcabin_liner
p1341
aVwheeled_vehicle
p1342
aVnursery
p1343
aVdustcart
p1344
aVhotel
p1345
aVplane
p1346
aVrobot_bomb
p1347
aVtoilet_bowl
p1348
aVoriel_window
p1349
aVtruckle
p1350
aVbeach_chair
p1351
aVobservatory
p1352
aVworktable
p1353
aVvial
p1354
aVshow_window
p1355
aVbreadbasket
p1356
aVdispenser
p1357
aVschool_ship
p1358
aVwater_glass
p1359
aVbooth
p1360
aVresidence_hall
p1361
aVresearch_facility
p1362
aVbassinet
p1363
aVrailroad_car
p1364
aVsafety_bicycle
p1365
aVcistern
p1366
aVhatbox
p1367
aVballistic_capsule
p1368
aVlawn_chair
p1369
aVcouch
p1370
aVsausage_balloon
p1371
aVicehouse
p1372
aVarena_theater
p1373
aVfrail
p1374
aVmultiengine_airplane
p1375
aVelectric
p1376
aVrucksack
p1377
aVmonastery
p1378
aVflute
p1379
aVpaddle_steamer
p1380
aVpedestal_table
p1381
aVpressure_cooker
p1382
aVyawl
p1383
aVhothouse
p1384
aVcycle_rickshaw
p1385
aVtreasure_chest
p1386
aVshowcase
p1387
aVopium_den
p1388
aVouthouse
p1389
aVstudent_center
p1390
aVamphibian
p1391
aVsaloon
p1392
aVtete-a-tete
p1393
aVmail_car
p1394
aVsurrey
p1395
aVcannikin
p1396
aVbathing_tub
p1397
aVloveseat
p1398
aVscyphus
p1399
aVcruiser
p1400
aVsoup_ladle
p1401
aVgrace_cup
p1402
aVhand_luggage
p1403
aVhopper
p1404
aVchoo-choo
p1405
aVfont
p1406
aVseptic_tank
p1407
aVsideboard
p1408
aVsaucepot
p1409
aVfleabag
p1410
aVscooter
p1411
aVCaterpillar
p1412
aVcassette
p1413
aVmailbag
p1414
aVlavabo
p1415
aVdetached_house
p1416
aVwater_tank
p1417
aVsitz_bath
p1418
aVdinner_table
p1419
aVwaste_basket
p1420
aVcapsule
p1421
aVwidebody_aircraft
p1422
aVbilliard_table
p1423
aVpicket_ship
p1424
aVman-of-war
p1425
aVHum-Vee
p1426
aVfloatplane
p1427
aVfolding_chair
p1428
aVsleeve
p1429
aVdormer
p1430
aVampoule
p1431
aVclinic
p1432
aVcoffeehouse
p1433
aVoxcart
p1434
aVmanger
p1435
aVcapital_ship
p1436
aVoutboard
p1437
aVkylix
p1438
aVtender
p1439
aVbark
p1440
aVark
p1441
aVbarn
p1442
aVfleet_ballistic_missile_submarine
p1443
aVfeeding_bottle
p1444
aVaviary
p1445
aVpickup
p1446
aVpatrol_ship
p1447
aVlawn_cart
p1448
aVcattle_car
p1449
aVmetal_drum
p1450
aVmailbox
p1451
aVpagoda
p1452
aVbobsled
p1453
aVspray
p1454
aVdispatch_box
p1455
aVscuttle
p1456
aVlaundry_cart
p1457
aVcattle_boat
p1458
aVtrundle_bed
p1459
aVrestaurant
p1460
aVbota
p1461
aVautogiro
p1462
aVdiesel-hydraulic
p1463
aVocean_liner
p1464
aVsudatorium
p1465
aVarmored_car
p1466
aVstately_home
p1467
aVplatform_bed
p1468
aVpolice_wagon
p1469
aVbed_and_breakfast
p1470
aVcaroche
p1471
aVslip_coach
p1472
aVclerestory
p1473
aVladder_truck
p1474
aVwastebasket
p1475
aVstudio_couch
p1476
aVriver_boat
p1477
aVchurch
p1478
aVvessel
p1479
aVcard_catalogue
p1480
aVhovercraft
p1481
aVgarden_chair
p1482
aVpocketbook
p1483
aVthermos_flask
p1484
aVplank-bed
p1485
aVdipper
p1486
aVaerial_ladder_truck
p1487
aVtea_wagon
p1488
aVoffice_furniture
p1489
aVevening_bag
p1490
aVgrab_bag
p1491
aVempty
p1492
aVgolfcart
p1493
aVice_wagon
p1494
aVfelucca
p1495
aVracer
p1496
aVtap_house
p1497
aVguided_missile_destroyer
p1498
aVtwin-prop
p1499
aVconsulate
p1500
aVwain
p1501
aVshoofly
p1502
aVballistic_missile
p1503
aVPetri_dish
p1504
aVpresbytery
p1505
aVskiff
p1506
aVeating_house
p1507
aVpack
p1508
aVhope_chest
p1509
aVcredence
p1510
aVgripsack
p1511
aVmotor_hotel
p1512
aVmaisonnette
p1513
aVmovie_theater
p1514
aVhot-water_bottle
p1515
aVtransom
p1516
aVICBM
p1517
aVrig
p1518
aVtoilet_table
p1519
aVpropeller_plane
p1520
aVlawn_furniture
p1521
aVestate_car
p1522
aVshay
p1523
aVampule
p1524
aVnosebag
p1525
aVpouffe
p1526
aVbedframe
p1527
aVliqueur_glass
p1528
aVdime
p1529
aVtrucking_rig
p1530
aVcarryall
p1531
aVwine_cask
p1532
aVbob
p1533
aVrecord_sleeve
p1534
aVlower
p1535
aVabattoir
p1536
aVglasshouse
p1537
aVstockcar
p1538
aVdeposit_box
p1539
aVski_lodge
p1540
aVstation_wagon
p1541
aVcarack
p1542
aVpost_chaise
p1543
aVhandbasket
p1544
aVpress
p1545
aVgas_tank
p1546
aVclipper_ship
p1547
aVshopping_bag
p1548
aVgoblet
p1549
aVcup
p1550
aVpicture_palace
p1551
aVlaboratory_bench
p1552
aVrose_window
p1553
aVbin
p1554
aVdinner_pail
p1555
aVhip_bath
p1556
aVstein
p1557
aVmerchant_ship
p1558
aVdoll's_house
p1559
aVmagnum
p1560
aVnarrowbody_aircraft
p1561
aVbreast_pocket
p1562
aVtourist_court
p1563
aVgatehouse
p1564
aVsemi
p1565
aVfagot
p1566
aVski-plane
p1567
aVramequin
p1568
aVbogie
p1569
aVsleigh
p1570
aVmotorized_wheelchair
p1571
aVpleasure_boat
p1572
aVwoodshed
p1573
aVlitterbin
p1574
aVpilot_balloon
p1575
aVdonkey_engine
p1576
aVrecreational_vehicle
p1577
aVoyster_bar
p1578
aVpedicab
p1579
aVmilk_bar
p1580
aVtandem_bicycle
p1581
aVyacht_chair
p1582
aVsailing_warship
p1583
aVguard_boat
p1584
aVice-skating_rink
p1585
aVday_school
p1586
aVbathing_machine
p1587
aVmortuary
p1588
aVkit_bag
p1589
aVpew
p1590
aVsea_boat
p1591
aVicetray
p1592
aVmedicine_cabinet
p1593
aVtemple
p1594
aVcaravanserai
p1595
aVhandbasin
p1596
aVmixing_bowl
p1597
aVtilt-top_table
p1598
aVfiretrap
p1599
aVlyceum
p1600
aVsugar_shell
p1601
aVlounger
p1602
aVampul
p1603
aVupper_berth
p1604
aVflatcar
p1605
aVcruise_liner
p1606
aVwineglass
p1607
aVbirdbath
p1608
aVoffice_building
p1609
aVpush-bike
p1610
aVMurphy_bed
p1611
aVclubhouse
p1612
aVpublic_house
p1613
aVwatering_can
p1614
aVgarbage
p1615
aVwriting_table
p1616
aVracing_yacht
p1617
aVeye_cup
p1618
aVicebreaker
p1619
aVcontainer_vessel
p1620
aVhotel-casino
p1621
aVamphibious_vehicle
p1622
aVskyhook
p1623
aVtrolley_car
p1624
aVfore-and-after
p1625
aVflophouse
p1626
aVshooting_box
p1627
aVtank_engine
p1628
aVkamikaze
p1629
aVfoundling_hospital
p1630
aVcellaret
p1631
aVmoving_van
p1632
aVcocktail_shaker
p1633
aVblockade-runner
p1634
aVbuttery
p1635
aVdouble-magnum
p1636
aVpyxis
p1637
aVketchup_bottle
p1638
aVcathedra
p1639
aVgo-cart
p1640
aVtearoom
p1641
aVcoach_house
p1642
aVwash-hand_stand
p1643
aVpowder_flask
p1644
aVeating_place
p1645
aVhome_theater
p1646
aValehouse
p1647
aVflagon
p1648
aVsnooker_table
p1649
aVdiplomatic_building
p1650
aVthermos_bottle
p1651
aVpickup_truck
p1652
aVdragger
p1653
aVjalousie
p1654
aVreliquary
p1655
aVtramcar
p1656
aVdrip_pot
p1657
aVattache_case
p1658
aVbanana_boat
p1659
aVnotecase
p1660
aVcafe
p1661
aVdouble_glazing
p1662
aVsteeper
p1663
aVpilotless_aircraft
p1664
aVreading_lamp
p1665
aVsubmersible
p1666
aVpriory
p1667
aVpalace_car
p1668
aVnarrow-body_aircraft
p1669
aVmedical_building
p1670
aVkirk
p1671
aVmeat_counter
p1672
aVfreighter
p1673
aVbarber_chair
p1674
aVetui
p1675
aVcellar
p1676
aVcoal_house
p1677
aVtablespoon
p1678
aVdray
p1679
aVswivel_chair
p1680
aVeyecup
p1681
aVhansom
p1682
aVwater_wagon
p1683
aVbarrel
p1684
aVhackney
p1685
aVtuffet
p1686
aVfighter
p1687
aVtote
p1688
aVphaeton
p1689
aVflowerpot
p1690
aVhackney_carriage
p1691
aVauxiliary_research_submarine
p1692
aVoracle
p1693
aVdrawing-room_car
p1694
aVstroller
p1695
aVhallstand
p1696
aVbushel_basket
p1697
aVstation_waggon
p1698
aVkettle
p1699
aVornithopter
p1700
aVcedar_chest
p1701
aVsnowmobile
p1702
aVwalk-up
p1703
aVtwo-seater
p1704
aVcompact
p1705
aVheat-seeking_missile
p1706
aVbaby_buggy
p1707
aVbyre
p1708
aVstable
p1709
aVhouse_of_ill_repute
p1710
aVhip_pocket
p1711
aVschooner
p1712
aVpyx_chest
p1713
aVdandy
p1714
aVladle
p1715
aVguard's_van
p1716
aVbioscope
p1717
aVspoon
p1718
aVtrough
p1719
aVsailplane
p1720
aVice_yacht
p1721
aVhorse-drawn_vehicle
p1722
aVsamovar
p1723
aVsea_chest
p1724
aVhuman_remains_pouch
p1725
aVrailway_car
p1726
aVstealth_fighter
p1727
aVhive
p1728
aVbuffet_car
p1729
aVtucker-bag
p1730
aVcloister
p1731
aVbread-bin
p1732
aVash_bin
p1733
aVwhiskey_bottle
p1734
aVpicket
p1735
aVsewing_basket
p1736
aVturboprop
p1737
aVsteam_boiler
p1738
aVminelayer
p1739
aVcombat_ship
p1740
aVtoilet_kit
p1741
aVcamping_bus
p1742
aVsnack_counter
p1743
aVflagship
p1744
aVsausage
p1745
aVpoke
p1746
aVemesis_basin
p1747
aVgambling_house
p1748
aVreconnaissance_plane
p1749
aVdice_cup
p1750
aVedifice
p1751
aVfuneral_home
p1752
aVsofa_bed
p1753
aVshadow_box
p1754
aVwooden_spoon
p1755
aVcard_index
p1756
aVtanker_plane
p1757
aVlazy_Susan
p1758
aVsink
p1759
aVcab
p1760
aVsix_pack
p1761
aVtaboret
p1762
aVwater_bottle
p1763
aVgalleon
p1764
aVcrazy_house
p1765
aVbumper_car
p1766
aVtea_bag
p1767
aVtechnical
p1768
aVcasino
p1769
aVside_chapel
p1770
aVarmy_tank
p1771
aVsmall_boat
p1772
aVbunk_bed
p1773
aVruin
p1774
aVricksha
p1775
aVradio-controlled_aircraft
p1776
aVRitz
p1777
aVwork_bench
p1778
aVlimo
p1779
aVwashtub
p1780
aVpirogue
p1781
aVsanitarium
p1782
aVrunabout
p1783
aVballot_box
p1784
aVStanley_Steamer
p1785
aVwaist_pack
p1786
aVhouse_of_prayer
p1787
aVrowing_boat
p1788
aVvehicle
p1789
aVfactory_ship
p1790
aVpencil_case
p1791
aVvalise
p1792
aVthrone
p1793
aVclearstory
p1794
aVshipwreck
p1795
aVtoolshed
p1796
aVprairie_schooner
p1797
aVmissile
p1798
aVracing_skiff
p1799
aVdrop-leaf_table
p1800
aVbellarmine
p1801
aVcasserole
p1802
aVbeer_bottle
p1803
aVmustache_cup
p1804
aVswamp_buggy
p1805
aVjeep
p1806
aVpig_bed
p1807
aVdrafting_table
p1808
aVsleeping_bag
p1809
aVpouf
p1810
aVcoffin
p1811
aVoffice_block
p1812
aVinhalator
p1813
aVflat_bench
p1814
aVspa
p1815
aVParsons_table
p1816
aVguided_missile
p1817
aVgin_mill
p1818
aVwine_bar
p1819
aVsafe_house
p1820
aVsafety_bike
p1821
aVlamp
p1822
aVdice_box
p1823
aVbrownstone
p1824
aVdigester
p1825
aVtown_hall
p1826
aVcupboard
p1827
aVdoodlebug
p1828
aVshoulder_bag
p1829
aVABM
p1830
aVsmoking_carriage
p1831
aVnuclear-powered_ship
p1832
aVpencil_box
p1833
aVbaby's_bed
p1834
aVfeed_bunk
p1835
aVcounter
p1836
aVliner
p1837
aVlanding_craft
p1838
aVscoop
p1839
aVpoacher
p1840
aVmilitary_vehicle
p1841
aVminivan
p1842
aVtroop_transport
p1843
aVparsonage
p1844
aVjigger
p1845
aVvacuum_bag
p1846
aVmotorcycle
p1847
aVinterceptor
p1848
aVcoffee_shop
p1849
aVspace_shuttle
p1850
aVbin_liner
p1851
aVangledozer
p1852
aVmoneybag
p1853
aVostensorium
p1854
aVderelict
p1855
aVcity_hall
p1856
aVauto
p1857
aVguided_missile_cruiser
p1858
aVbishop's_throne
p1859
aVlandau
p1860
aVmilk_float
p1861
aVtorpedo-boat_destroyer
p1862
aVstoup
p1863
aVbucket_shop
p1864
aVbeer_mug
p1865
aVfishing_boat
p1866
aVfootstool
p1867
aVair-to-ground_missile
p1868
aVtram
p1869
aVcardcase
p1870
aVtea_chest
p1871
aVaerosol_can
p1872
aVtrap
p1873
aVshebeen
p1874
aVtray
p1875
aVdixie
p1876
aVantiballistic_missile
p1877
aVtrestle_table
p1878
aVErlenmeyer_flask
p1879
aVbethel
p1880
aVbedstead
p1881
aVbogey
p1882
aVcasement_window
p1883
aVpicture_window
p1884
aVtreasure_ship
p1885
aVdinner_theatre
p1886
aVmeasure
p1887
aVaerosol_bomb
p1888
aVhenhouse
p1889
aVpump_house
p1890
aVmatrix
p1891
aVgunnysack
p1892
aVremise
p1893
aVdining_car
p1894
aVbreadbox
p1895
aVlowboy
p1896
aVshambles
p1897
aVused-car
p1898
aVclub_car
p1899
aVcaravan_inn
p1900
aVbirch_bark
p1901
aVsea_scooter
p1902
aVduffle
p1903
aVtenement
p1904
aVbattlewagon
p1905
aVsanatorium
p1906
aVramekin
p1907
aVfiling_cabinet
p1908
aVtanker
p1909
aVmortar
p1910
aVmobile_home
p1911
aVtoolhouse
p1912
aVskateboard
p1913
aVpaintball
p1914
aVdormer_window
p1915
aVprojectile
p1916
aVwater_tower
p1917
aVpassenger_van
p1918
aVmosquito_boat
p1919
aVvertical_file
p1920
aVsack
p1921
aVfunny_farm
p1922
aVminster
p1923
aVpunch_bowl
p1924
aVseidel
p1925
aVclothes_closet
p1926
aVdemijohn
p1927
aVbookmobile
p1928
aVloony_bin
p1929
aVsport_utility_vehicle
p1930
aVgalley
p1931
aVcharterhouse
p1932
aVpotty
p1933
aVchamberpot
p1934
aVmotorcar
p1935
aVspaceship
p1936
aVcabin
p1937
aVshell
p1938
aVragbag
p1939
aVsachet
p1940
aVrotunda
p1941
aVcaravansary
p1942
aVtandem_trailer
p1943
aVcontainer_ship
p1944
aVjet_plane
p1945
aVinstitution
p1946
aVluxury_liner
p1947
aVtrike
p1948
aVtravel_kit
p1949
aVguided_missile_frigate
p1950
aVimaret
p1951
aVout-tray
p1952
aVsailing_vessel
p1953
aVtidy
p1954
aVsloop_of_war
p1955
aVspace_capsule
p1956
aVporringer
p1957
aVmail_pouch
p1958
aVsoda_fountain
p1959
aVcathouse
p1960
aVcarrycot
p1961
aVhealth_facility
p1962
aVpix_chest
p1963
aVskibob
p1964
aVcabin_car
p1965
aVbus
p1966
aVchaise
p1967
aVcargo_ship
p1968
aVpottle
p1969
aVsupply_closet
p1970
aVDodgem
p1971
aVmanor
p1972
aVcentre
p1973
aVdinkey
p1974
aVcamper
p1975
aVbasket
p1976
aVauberge
p1977
aVlocomotive_engine
p1978
aVhandbag
p1979
aVround-bottom_flask
p1980
aVcompact_car
p1981
aVbutt_pack
p1982
aVscrambler
p1983
aVwine_bottle
p1984
aVpost_house
p1985
aVurn
p1986
aVhospital_bed
p1987
aVgarment_bag
p1988
aVink_bottle
p1989
aVbeer_can
p1990
aVdredging_bucket
p1991
aVhot-water_heater
p1992
aVsettee
p1993
aVdining_table
p1994
aVcowhouse
p1995
aVcrate
p1996
aVcookie_jar
p1997
aVcamion
p1998
aVcottage
p1999
aVgreenhouse
p2000
aVoutboard_motorboat
p2001
aVportfolio
p2002
aVasylum
p2003
aVprowl_car
p2004
aVplanter
p2005
aVoutbuilding
p2006
aVcache
p2007
aVjar
p2008
aVchuck_wagon
p2009
aVcreamer
p2010
aVchophouse
p2011
aVfighter_aircraft
p2012
aVzikkurat
p2013
aVdressing_case
p2014
aVfreight_car
p2015
aVDewar
p2016
aVstash_house
p2017
aVposthouse
p2018
aVGladstone
p2019
aVpark_bench
p2020
aVmotor_inn
p2021
aVbowling_alley
p2022
aVconservatory
p2023
aVdishpan
p2024
aVwater_back
p2025
aVashtray
p2026
aVmoustache_cup
p2027
aVaerosol_container
p2028
aVsharpshooter
p2029
aVvaudeville_theatre
p2030
aVtip-top_table
p2031
aVbathhouse
p2032
aVcruet
p2033
aVSno-cat
p2034
aVworkbench
p2035
aVwide-body_aircraft
p2036
aVfire_truck
p2037
aVtank_destroyer
p2038
aVpaddle-wheeler
p2039
aVcard_catalog
p2040
aVpill_bottle
p2041
aVovernight_bag
p2042
aVpropjet
p2043
aVfeedbag
p2044
aVpantechnicon
p2045
aVcloset
p2046
aVtoy_box
p2047
aVhot_tub
p2048
aVflying_bomb
p2049
aVwherry
p2050
aVletter_case
p2051
aVspace_probe
p2052
aVkite_balloon
p2053
aVkeg
p2054
aVpump_room
p2055
aVfile_cabinet
p2056
aVnotions_counter
p2057
aVottoman
p2058
aVworkbox
p2059
aVmailboat
p2060
aVfaggot
p2061
aVtool_chest
p2062
aVrosette
p2063
aVsingle_bed
p2064
aVsoapbox
p2065
aVdrum
p2066
aVlifeboat
p2067
aVdime_bag
p2068
aVaircraft
p2069
aVsnifter
p2070
aVnebulizer
p2071
aVcheeseboard
p2072
aVpuff
p2073
aVwindow_seat
p2074
aVpesthouse
p2075
aVclamshell
p2076
aVsaddlebag
p2077
aVoff-roader
p2078
aVstraight_chair
p2079
aVnursing_bottle
p2080
aVairing_cupboard
p2081
aVbox_seat
p2082
aVtable
p2083
aVlectern
p2084
aVmotorbike
p2085
aVlower_berth
p2086
aVwicker_basket
p2087
aVcinema
p2088
aVfield_house
p2089
aVbrilliant_pebble
p2090
aVpicket_boat
p2091
aVgasometer
p2092
aVintercontinental_ballistic_missile
p2093
aVchair_of_state
p2094
aVfinisher
p2095
aVpacking_box
p2096
aVbutchery
p2097
aVcaddy
p2098
aVcowshed
p2099
aVbow_window
p2100
aVtest_instrument_vehicle
p2101
aVcash_bar
p2102
aVcot
p2103
aVdeanery
p2104
aVfishing_smack
p2105
aVrigger
p2106
aVstealth_bomber
p2107
aVcoffee_mug
p2108
aVwater_skin
p2109
aVwashstand
p2110
aVbathtub
p2111
aVatomiser
p2112
aVtroop_carrier
p2113
aVdisplay_window
p2114
aVsafety-deposit
p2115
aVsnake_pit
p2116
aVballoon
p2117
aVgambling_hell
p2118
aVtumbler
p2119
aVsporting_house
p2120
aVpowerboat
p2121
aVpanda_car
p2122
aVExocet
p2123
aVbumboat
p2124
aVcylix
p2125
aVstudent_lamp
p2126
aVpothouse
p2127
aVModel_T
p2128
aVmusic_hall
p2129
aVsummerhouse
p2130
aVcenter
p2131
aVgondola_car
p2132
aVDixie_cup
p2133
aVwell
p2134
aVflattop
p2135
aVpanzer
p2136
aVdrone
p2137
aVtramp_steamer
p2138
aVcash_register
p2139
aVhay_bale
p2140
aVslash_pocket
p2141
aVweapons_carrier
p2142
aVrocker
p2143
aVrocket
p2144
aVsickbed
p2145
aVlazar_house
p2146
aVpenalty_box
p2147
aVrecycling_bin
p2148
aVclipper
p2149
aVhealthcare_facility
p2150
aVpushchair
p2151
aVBedlam
p2152
aVbench
p2153
aVbobsleigh
p2154
aVsedan
p2155
aVwide-body
p2156
aVmorgue
p2157
aVconference_house
p2158
aVforklift
p2159
aVrailcar
p2160
aVboardinghouse
p2161
aVcoaster_wagon
p2162
aVdesk
p2163
aVcamper_trailer
p2164
aVpickle_barrel
p2165
aVtea_table
p2166
aVteahouse
p2167
aVping-pong_table
p2168
aVsofa
p2169
aVdeedbox
p2170
aVpepper_spray
p2171
aVshooting_brake
p2172
aVtea_parlour
p2173
aVwriting_desk
p2174
aVsettlement_house
p2175
aVgarage
p2176
aVmanufactured_home
p2177
aVshed
p2178
aVin-tray
p2179
aVlibrary
p2180
aVaspersorium
p2181
aVdog_house
p2182
aVlockbox
p2183
aVclothes_hamper
p2184
aVearth-closet
p2185
aVshot_glass
p2186
aVcradle
p2187
aVmental_home
p2188
aVsaltcellar
p2189
aVbrandy_snifter
p2190
aVdoggie_bag
p2191
aVbeer_barrel
p2192
aVtureen
p2193
aVlaundry_basket
p2194
aVzikurat
p2195
aVguildhall
p2196
aVS.U.V.
p2197
aVmanor_house
p2198
aVoiler
p2199
aVlazaret
p2200
aVarticle_of_furniture
p2201
aVstage
p2202
aVbeaker
p2203
aVpacksack
p2204
aVsocket
p2205
aVWindsor_chair
p2206
aVcarrier
p2207
aVminesweeper
p2208
aVpaper_cup
p2209
aVpunnet
p2210
aVsemidetached_house
p2211
aVpier_table
p2212
aVautomat
p2213
aVlunar_excursion_module
p2214
aVwedding_chest
p2215
aVfuel_pod
p2216
aVtabernacle
p2217
aVbillfold
p2218
aVlitter_basket
p2219
aVrowboat
p2220
aVvan
p2221
aVentertainment_center
p2222
aVsnowplow
p2223
aVimperial
p2224
aVfunny_wagon
p2225
aVfeedlot
p2226
aVwine_cooler
p2227
aVcatamaran
p2228
aVvat
p2229
aVdessert_spoon
p2230
aVmailer
p2231
aVassault_gun
p2232
aVsupertanker
p2233
aVcowbarn
p2234
aVmental_institution
p2235
aVfraternity_house
p2236
aVcommunity_center
p2237
aVgolf_cart
p2238
aVschoolbag
p2239
aVautogyro
p2240
aVguard_ship
p2241
aVstorage_tank
p2242
aVpool_table
p2243
aVcarriage
p2244
aValms_tray
p2245
aVsternwheeler
p2246
aVdrawstring_bag
p2247
aVarmored_combat_vehicle
p2248
aVapiary
p2249
aVslinger_ring
p2250
aVseabag
p2251
aVmeetinghouse
p2252
aVarmored_vehicle
p2253
aVsectional
p2254
aVmeat_safe
p2255
aVpig
p2256
aVpix
p2257
aVjaunty_car
p2258
aVStatehouse
p2259
aVhorse-cart
p2260
aVserving_cart
p2261
aVtourer
p2262
aVslaughterhouse
p2263
aVtip_truck
p2264
aVcoffeepot
p2265
aVtoby_fillpot_jug
p2266
aVdresser
p2267
aVmosquito_craft
p2268
aVhydrofoil
p2269
aVjunk
p2270
aVburlap_bag
p2271
aVwater_bed
p2272
aVatomizer
p2273
aVbrigantine
p2274
aVbundle
p2275
aVcream_pitcher
p2276
aVorthopter
p2277
aVcashbox
p2278
aVbone-ash_cup
p2279
aVmeasuring_cup
p2280
aVcontainer
p2281
aVdhow
p2282
aVcalabash
p2283
aVpackinghouse
p2284
aVlong-beard
p2285
aVresort_hotel
p2286
aViron_horse
p2287
aVindoor_garden
p2288
aVeyebath
p2289
aVcooky_jar
p2290
aVdumpcart
p2291
aVfighting_chair
p2292
aVjorum
p2293
aVtoboggan
p2294
atp2295
Rp2296
.